; ModuleID = '30/2123.c'
source_filename = "30/2123.c"
target datalayout = "e-m:e-p270:32:32-p271:32:32-p272:64:64-i64:64-f80:128-n8:16:32:64-S128"
target triple = "x86_64-pc-linux-gnu"

@.str = private unnamed_addr constant [3 x i8] c"%d\00", align 1
@.str.1 = private unnamed_addr constant [4 x i8] c"%d\0A\00", align 1

; Function Attrs: noinline nounwind uwtable
define dso_local i32 @main() #0 {
  %1 = alloca i32, align 4
  %2 = alloca i32, align 4
  %3 = alloca i32, align 4
  %4 = alloca i32, align 4
  %5 = alloca i32, align 4
  %6 = alloca i32, align 4
  store i32 0, i32* %1, align 4
  store i32 0, i32* %4, align 4
  store i32 0, i32* %6, align 4
  %7 = call i32 (i8*, ...) @__isoc99_scanf(i8* getelementptr inbounds ([3 x i8], [3 x i8]* @.str, i64 0, i64 0), i32* %2)
  %8 = load i32, i32* %2, align 4
  %9 = icmp slt i32 %8, 100
  br i1 %9, label %10, label %42

10:                                               ; preds = %0
  store i32 1, i32* %5, align 4
  br label %11

11:                                               ; preds = %38, %10
  %12 = load i32, i32* %5, align 4
  %13 = load i32, i32* %2, align 4
  %14 = icmp sle i32 %12, %13
  br i1 %14, label %15, label %41

15:                                               ; preds = %11
  %16 = load i32, i32* %5, align 4
  %17 = srem i32 %16, 10
  store i32 %17, i32* %3, align 4
  %18 = load i32, i32* %5, align 4
  %19 = sdiv i32 %18, 10
  store i32 %19, i32* %4, align 4
  %20 = load i32, i32* %3, align 4
  %21 = icmp ne i32 %20, 7
  br i1 %21, label %22, label %37

22:                                               ; preds = %15
  %23 = load i32, i32* %4, align 4
  %24 = icmp ne i32 %23, 7
  br i1 %24, label %25, label %37

25:                                               ; preds = %22
  %26 = load i32, i32* %5, align 4
  %27 = srem i32 %26, 7
  %28 = icmp ne i32 %27, 0
  br i1 %28, label %29, label %37

29:                                               ; preds = %25
  %30 = load i32, i32* %5, align 4
  %31 = sitofp i32 %30 to double
  %32 = call double @pow(double %31, double 2.000000e+00) #3
  %33 = load i32, i32* %6, align 4
  %34 = sitofp i32 %33 to double
  %35 = fadd double %34, %32
  %36 = fptosi double %35 to i32
  store i32 %36, i32* %6, align 4
  br label %37

37:                                               ; preds = %29, %25, %22, %15
  br label %38

38:                                               ; preds = %37
  %39 = load i32, i32* %5, align 4
  %40 = add nsw i32 %39, 1
  store i32 %40, i32* %5, align 4
  br label %11

41:                                               ; preds = %11
  br label %42

42:                                               ; preds = %41, %0
  %43 = load i32, i32* %6, align 4
  %44 = call i32 (i8*, ...) @printf(i8* getelementptr inbounds ([4 x i8], [4 x i8]* @.str.1, i64 0, i64 0), i32 %43)
  ret i32 0
}

declare dso_local i32 @__isoc99_scanf(i8*, ...) #1

; Function Attrs: nounwind
declare dso_local double @pow(double, double) #2

declare dso_local i32 @printf(i8*, ...) #1


!llvm.module.flags = !{!0}
!llvm.ident = !{!1}

!0 = !{i32 1, !"wchar_size", i32 4}
!1 = !{!"clang version 10.0.0-4ubuntu1 "}
