; ModuleID = 'source-C-CXX/29/2123.c'
source_filename = "source-C-CXX/29/2123.c"
target datalayout = "e-m:e-p270:32:32-p271:32:32-p272:64:64-i64:64-f80:128-n8:16:32:64-S128"
target triple = "x86_64-pc-linux-gnu"

@.str = private unnamed_addr constant [3 x i8] c"%d\00", align 1
@.str.1 = private unnamed_addr constant [4 x i8] c"%d\0A\00", align 1

; Function Attrs: nofree nounwind sspstrong uwtable
define dso_local i32 @main() local_unnamed_addr #0 {
  %1 = alloca i32, align 4
  %2 = bitcast i32* %1 to i8*
  call void @llvm.lifetime.start.p0i8(i64 4, i8* nonnull %2) #3
  %3 = call i32 (i8*, ...) @__isoc99_scanf(i8* getelementptr inbounds ([3 x i8], [3 x i8]* @.str, i64 0, i64 0), i32* nonnull %1)
  %4 = load i32, i32* %1, align 4, !tbaa !5
  %5 = add i32 %4, -1
  %6 = icmp ugt i32 %5, 98
  br i1 %6, label %28, label %7

7:                                                ; preds = %0, %24
  %8 = phi i32 [ %25, %24 ], [ 0, %0 ]
  %9 = phi i32 [ %26, %24 ], [ 1, %0 ]
  %10 = urem i32 %9, 10
  %11 = icmp eq i32 %10, 7
  %12 = add nsw i32 %9, -70
  %13 = icmp ult i32 %12, 10
  %14 = select i1 %11, i1 true, i1 %13
  %15 = urem i32 %9, 7
  %16 = icmp eq i32 %15, 0
  %17 = select i1 %14, i1 true, i1 %16
  br i1 %17, label %24, label %18

18:                                               ; preds = %7
  %19 = sitofp i32 %9 to double
  %20 = fmul double %19, %19
  %21 = sitofp i32 %8 to double
  %22 = fadd double %20, %21
  %23 = fptosi double %22 to i32
  br label %24

24:                                               ; preds = %7, %18
  %25 = phi i32 [ %23, %18 ], [ %8, %7 ]
  %26 = add nuw i32 %9, 1
  %27 = icmp eq i32 %9, %4
  br i1 %27, label %28, label %7, !llvm.loop !9

28:                                               ; preds = %24, %0
  %29 = phi i32 [ 0, %0 ], [ %25, %24 ]
  %30 = call i32 (i8*, ...) @printf(i8* nonnull dereferenceable(1) getelementptr inbounds ([4 x i8], [4 x i8]* @.str.1, i64 0, i64 0), i32 %29)
  call void @llvm.lifetime.end.p0i8(i64 4, i8* nonnull %2) #3
  ret i32 0
}

; Function Attrs: argmemonly mustprogress nofree nosync nounwind willreturn
declare void @llvm.lifetime.start.p0i8(i64 immarg, i8* nocapture) #1

; Function Attrs: nofree nounwind
declare noundef i32 @__isoc99_scanf(i8* nocapture noundef readonly, ...) local_unnamed_addr #2

; Function Attrs: nofree nounwind
declare noundef i32 @printf(i8* nocapture noundef readonly, ...) local_unnamed_addr #2

; Function Attrs: argmemonly mustprogress nofree nosync nounwind willreturn
declare void @llvm.lifetime.end.p0i8(i64 immarg, i8* nocapture) #1


!llvm.module.flags = !{!0, !1, !2, !3}
!llvm.ident = !{!4}

!0 = !{i32 1, !"wchar_size", i32 4}
!1 = !{i32 7, !"PIC Level", i32 2}
!2 = !{i32 7, !"PIE Level", i32 2}
!3 = !{i32 7, !"uwtable", i32 1}
!4 = !{!"clang version 13.0.0"}
!5 = !{!6, !6, i64 0}
!6 = !{!"int", !7, i64 0}
!7 = !{!"omnipotent char", !8, i64 0}
!8 = !{!"Simple C/C++ TBAA"}
!9 = distinct !{!9, !10}
!10 = !{!"llvm.loop.mustprogress"}
